target datalayout = "e-m:e-p270:32:32-p271:32:32-p272:64:64-i64:64-i128:128-f80:128-n8:16:32:64-S128"
target triple = "x86_64-pc-linux-gnu"

%struct._zend_accel_globals = type { i8, i8, i8, i8, i8, %struct._zend_accel_directives, ptr, ptr, [32 x i8], [32 x i8], i32, i8, i32, i8, i32, i64, i64, %struct._zend_array, i64, ptr, ptr, ptr, ptr, %struct._zend_string, [32768 x i8] }
%struct._zend_accel_directives = type { i64, i64, double, ptr, i64, i8, i8, i8, i8, i8, i8, i8, i8, i8, i8, i8, i64, i64, ptr, ptr, i64, i64, i64, i64, i64, ptr, ptr, ptr, i8, i8, i8, ptr, ptr }
%struct._zend_array = type { %struct._zend_refcounted_h, %union.anon.1, i32, %union.anon.2, i32, i32, i32, i32, i64, ptr }
%struct._zend_refcounted_h = type { i32, %union.anon.0 }
%union.anon.0 = type { i32 }
%union.anon.1 = type { i32 }
%union.anon.2 = type { ptr }
%struct._zend_string = type { %struct._zend_refcounted_h, i64, i64, [1 x i8] }
%struct._zend_persistent_script = type { %struct._zend_script, i64, i32, i64, i8, i8, i8, i32, i32, ptr, ptr, ptr, i64, %struct.zend_persistent_script_dynamic_members }
%struct._zend_script = type { ptr, %struct._zend_op_array, %struct._zend_array, %struct._zend_array }
%struct._zend_op_array = type { i8, [3 x i8], i32, ptr, ptr, ptr, i32, i32, ptr, ptr, ptr, ptr, i32, i32, i32, i32, ptr, ptr, ptr, ptr, ptr, i32, i32, ptr, ptr, ptr, i32, i32, i32, i32, ptr, ptr, [6 x ptr] }
%struct.zend_persistent_script_dynamic_members = type { i64, i64, i32, i64 }
%struct._zval_struct = type { %union._zend_value, %union.anon.9, %union.anon.12 }
%union._zend_value = type { i64 }
%union.anon.9 = type { i32 }
%union.anon.12 = type { i32 }
%struct._zend_ast = type { i16, i16, i32, [1 x ptr] }
%struct._zend_ast_zval = type { i16, i16, %struct._zval_struct }
%struct._zend_ast_list = type { i16, i16, i32, i32, [1 x ptr] }

@accel_globals = external global %struct._zend_accel_globals, align 8

; Function Attrs: nounwind uwtable
define internal void @zend_persist_ast_calc(ptr noundef %0) #0 {
  %2 = alloca i32, align 4
  %3 = alloca ptr, align 8
  %4 = alloca ptr, align 8
  %5 = alloca ptr, align 8
  %6 = alloca ptr, align 8
  %7 = alloca i32, align 4
  %8 = alloca ptr, align 8
  %9 = alloca i32, align 4
  store ptr %0, ptr %6, align 8
  %10 = load ptr, ptr %6, align 8
  %11 = getelementptr inbounds %struct._zend_ast, ptr %10, i32 0, i32 0
  %12 = load i16, ptr %11, align 8
  %13 = zext i16 %12 to i32
  %14 = icmp eq i32 %13, 64
  br i1 %14, label %21, label %15

15:                                               ; preds = %1
  %16 = load ptr, ptr %6, align 8
  %17 = getelementptr inbounds %struct._zend_ast, ptr %16, i32 0, i32 0
  %18 = load i16, ptr %17, align 8
  %19 = zext i16 %18 to i32
  %20 = icmp eq i32 %19, 65
  br i1 %20, label %21, label %28

21:                                               ; preds = %15, %1
  %22 = load ptr, ptr getelementptr inbounds (%struct._zend_accel_globals, ptr @accel_globals, i32 0, i32 20), align 8
  %23 = getelementptr inbounds %struct._zend_persistent_script, ptr %22, i32 0, i32 12
  %24 = load i64, ptr %23, align 8
  %25 = add i64 %24, 24
  store i64 %25, ptr %23, align 8
  %26 = load ptr, ptr %6, align 8
  %27 = getelementptr inbounds %struct._zend_ast_zval, ptr %26, i32 0, i32 2
  call void @zend_persist_zval_calc(ptr noundef %27)
  br label %119

28:                                               ; preds = %15
  %29 = load ptr, ptr %6, align 8
  store ptr %29, ptr %5, align 8
  %30 = load ptr, ptr %5, align 8
  %31 = load i16, ptr %30, align 8
  %32 = zext i16 %31 to i32
  %33 = ashr i32 %32, 7
  %34 = and i32 %33, 1
  %35 = icmp ne i32 %34, 0
  br i1 %35, label %36, label %77

36:                                               ; preds = %28
  %37 = load ptr, ptr %6, align 8
  store ptr %37, ptr %4, align 8
  %38 = load ptr, ptr %4, align 8
  store ptr %38, ptr %8, align 8
  %39 = load ptr, ptr %8, align 8
  %40 = getelementptr inbounds %struct._zend_ast_list, ptr %39, i32 0, i32 3
  %41 = load i32, ptr %40, align 8
  %42 = zext i32 %41 to i64
  %43 = mul i64 8, %42
  %44 = add i64 16, %43
  %45 = add i64 %44, 7
  %46 = and i64 %45, -8
  %47 = load ptr, ptr getelementptr inbounds (%struct._zend_accel_globals, ptr @accel_globals, i32 0, i32 20), align 8
  %48 = getelementptr inbounds %struct._zend_persistent_script, ptr %47, i32 0, i32 12
  %49 = load i64, ptr %48, align 8
  %50 = add i64 %49, %46
  store i64 %50, ptr %48, align 8
  store i32 0, ptr %7, align 4
  br label %51

51:                                               ; preds = %73, %36
  %52 = load i32, ptr %7, align 4
  %53 = load ptr, ptr %8, align 8
  %54 = getelementptr inbounds %struct._zend_ast_list, ptr %53, i32 0, i32 3
  %55 = load i32, ptr %54, align 8
  %56 = icmp ult i32 %52, %55
  br i1 %56, label %57, label %76

57:                                               ; preds = %51
  %58 = load ptr, ptr %8, align 8
  %59 = getelementptr inbounds %struct._zend_ast_list, ptr %58, i32 0, i32 4
  %60 = load i32, ptr %7, align 4
  %61 = zext i32 %60 to i64
  %62 = getelementptr inbounds [1 x ptr], ptr %59, i64 0, i64 %61
  %63 = load ptr, ptr %62, align 8
  %64 = icmp ne ptr %63, null
  br i1 %64, label %65, label %72

65:                                               ; preds = %57
  %66 = load ptr, ptr %8, align 8
  %67 = getelementptr inbounds %struct._zend_ast_list, ptr %66, i32 0, i32 4
  %68 = load i32, ptr %7, align 4
  %69 = zext i32 %68 to i64
  %70 = getelementptr inbounds [1 x ptr], ptr %67, i64 0, i64 %69
  %71 = load ptr, ptr %70, align 8
  call void @zend_persist_ast_calc(ptr noundef %71)
  br label %72

72:                                               ; preds = %65, %57
  br label %73

73:                                               ; preds = %72
  %74 = load i32, ptr %7, align 4
  %75 = add i32 %74, 1
  store i32 %75, ptr %7, align 4
  br label %51

76:                                               ; preds = %51
  br label %118

77:                                               ; preds = %28
  %78 = load ptr, ptr %6, align 8
  store ptr %78, ptr %3, align 8
  %79 = load ptr, ptr %3, align 8
  %80 = load i16, ptr %79, align 8
  %81 = zext i16 %80 to i32
  %82 = ashr i32 %81, 8
  store i32 %82, ptr %9, align 4
  %83 = load i32, ptr %9, align 4
  store i32 %83, ptr %2, align 4
  %84 = load i32, ptr %2, align 4
  %85 = zext i32 %84 to i64
  %86 = mul i64 8, %85
  %87 = add i64 8, %86
  %88 = add i64 %87, 7
  %89 = and i64 %88, -8
  %90 = load ptr, ptr getelementptr inbounds (%struct._zend_accel_globals, ptr @accel_globals, i32 0, i32 20), align 8
  %91 = getelementptr inbounds %struct._zend_persistent_script, ptr %90, i32 0, i32 12
  %92 = load i64, ptr %91, align 8
  %93 = add i64 %92, %89
  store i64 %93, ptr %91, align 8
  store i32 0, ptr %7, align 4
  br label %94

94:                                               ; preds = %114, %77
  %95 = load i32, ptr %7, align 4
  %96 = load i32, ptr %9, align 4
  %97 = icmp ult i32 %95, %96
  br i1 %97, label %98, label %117

98:                                               ; preds = %94
  %99 = load ptr, ptr %6, align 8
  %100 = getelementptr inbounds %struct._zend_ast, ptr %99, i32 0, i32 3
  %101 = load i32, ptr %7, align 4
  %102 = zext i32 %101 to i64
  %103 = getelementptr inbounds [1 x ptr], ptr %100, i64 0, i64 %102
  %104 = load ptr, ptr %103, align 8
  %105 = icmp ne ptr %104, null
  br i1 %105, label %106, label %113

106:                                              ; preds = %98
  %107 = load ptr, ptr %6, align 8
  %108 = getelementptr inbounds %struct._zend_ast, ptr %107, i32 0, i32 3
  %109 = load i32, ptr %7, align 4
  %110 = zext i32 %109 to i64
  %111 = getelementptr inbounds [1 x ptr], ptr %108, i64 0, i64 %110
  %112 = load ptr, ptr %111, align 8
  call void @zend_persist_ast_calc(ptr noundef %112)
  br label %113

113:                                              ; preds = %106, %98
  br label %114

114:                                              ; preds = %113
  %115 = load i32, ptr %7, align 4
  %116 = add i32 %115, 1
  store i32 %116, ptr %7, align 4
  br label %94

117:                                              ; preds = %94
  br label %118

118:                                              ; preds = %117, %76
  br label %119

119:                                              ; preds = %118, %21
  ret void
}