; Function Attrs: nounwind uwtable
define internal fastcc void @zend_persist_ast_calc(ptr nocapture noundef %0) unnamed_addr #0 {
  %2 = load i16, ptr %0, align 8
  %3 = zext i16 %2 to i32
  %4 = and i16 %2, -2
  %switch = icmp eq i16 %4, 64
  br i1 %switch, label %5, label %11

5:                                                ; preds = %1
  %6 = load ptr, ptr getelementptr inbounds (%struct._zend_accel_globals, ptr @accel_globals, i64 0, i32 20), align 8
  %7 = getelementptr inbounds i8, ptr %6, i64 424
  %8 = load i64, ptr %7, align 8
  %9 = add i64 %8, 24
  store i64 %9, ptr %7, align 8
  %10 = getelementptr inbounds i8, ptr %0, i64 8
  tail call fastcc void @zend_persist_zval_calc(ptr noundef nonnull %10)
  br label %.loopexit

11:                                               ; preds = %1
  %12 = and i32 %3, 128
  %.not = icmp eq i32 %12, 0
  br i1 %.not, label %35, label %13

13:                                               ; preds = %11
  %14 = getelementptr inbounds i8, ptr %0, i64 8
  %15 = load i32, ptr %14, align 8
  %16 = zext i32 %15 to i64
  %17 = shl nuw nsw i64 %16, 3
  %18 = add nuw nsw i64 %17, 23
  %19 = and i64 %18, 68719476728
  %20 = load ptr, ptr getelementptr inbounds (%struct._zend_accel_globals, ptr @accel_globals, i64 0, i32 20), align 8
  %21 = getelementptr inbounds i8, ptr %20, i64 424
  %22 = load i64, ptr %21, align 8
  %23 = add i64 %19, %22
  store i64 %23, ptr %21, align 8
  %24 = load i32, ptr %14, align 8
  %.not34 = icmp eq i32 %24, 0
  br i1 %.not34, label %.loopexit, label %.lr.ph

.lr.ph:                                           ; preds = %13
  %25 = getelementptr inbounds i8, ptr %0, i64 16
  br label %26

26:                                               ; preds = %.lr.ph, %31
  %27 = phi i32 [ %24, %.lr.ph ], [ %32, %31 ]
  %indvars.iv = phi i64 [ 0, %.lr.ph ], [ %indvars.iv.next, %31 ]
  %28 = getelementptr inbounds [1 x ptr], ptr %25, i64 0, i64 %indvars.iv
  %29 = load ptr, ptr %28, align 8
  %.not29 = icmp eq ptr %29, null
  br i1 %.not29, label %31, label %30

30:                                               ; preds = %26
  tail call fastcc void @zend_persist_ast_calc(ptr noundef nonnull %29)
  %.pre = load i32, ptr %14, align 8
  br label %31

31:                                               ; preds = %26, %30
  %32 = phi i32 [ %27, %26 ], [ %.pre, %30 ]
  %indvars.iv.next = add nuw nsw i64 %indvars.iv, 1
  %33 = zext i32 %32 to i64
  %34 = icmp ult i64 %indvars.iv.next, %33
  br i1 %34, label %26, label %.loopexit

35:                                               ; preds = %11
  %36 = lshr i32 %3, 8
  %37 = shl nuw nsw i32 %36, 3
  %narrow = add nuw nsw i32 %37, 15
  %38 = and i32 %narrow, 4088
  %39 = zext nneg i32 %38 to i64
  %40 = load ptr, ptr getelementptr inbounds (%struct._zend_accel_globals, ptr @accel_globals, i64 0, i32 20), align 8
  %41 = getelementptr inbounds i8, ptr %40, i64 424
  %42 = load i64, ptr %41, align 8
  %43 = add i64 %42, %39
  store i64 %43, ptr %41, align 8
  %.not35 = icmp ult i16 %2, 256
  br i1 %.not35, label %.loopexit, label %.lr.ph33

.lr.ph33:                                         ; preds = %35
  %44 = getelementptr inbounds i8, ptr %0, i64 8
  %wide.trip.count = zext nneg i32 %36 to i64
  br label %45

45:                                               ; preds = %.lr.ph33, %49
  %indvars.iv38 = phi i64 [ 0, %.lr.ph33 ], [ %indvars.iv.next39, %49 ]
  %46 = getelementptr inbounds [1 x ptr], ptr %44, i64 0, i64 %indvars.iv38
  %47 = load ptr, ptr %46, align 8
  %.not28 = icmp eq ptr %47, null
  br i1 %.not28, label %49, label %48

48:                                               ; preds = %45
  tail call fastcc void @zend_persist_ast_calc(ptr noundef nonnull %47)
  br label %49

49:                                               ; preds = %45, %48
  %indvars.iv.next39 = add nuw nsw i64 %indvars.iv38, 1
  %exitcond.not = icmp eq i64 %indvars.iv.next39, %wide.trip.count
  br i1 %exitcond.not, label %.loopexit, label %45

.loopexit:                                        ; preds = %31, %49, %13, %35, %5
  ret void
}